target datalayout = "e-m:e-p270:32:32-p271:32:32-p272:64:64-i64:64-i128:128-f80:128-n8:16:32:64-S128"
target triple = "x86_64-pc-linux-gnu"

%struct.llama_data_write_dummy = type { %struct.llama_data_write, i64 }
%struct.llama_data_write = type { ptr }

@_ZTISt9exception = external constant ptr
@.str.33 = private unnamed_addr constant [34 x i8] c"%s: error getting state size: %s\0A\00", align 1
@__func__.llama_state_get_size = private unnamed_addr constant [21 x i8] c"llama_state_get_size\00", align 1
@_ZTV16llama_data_write = linkonce_odr unnamed_addr constant { [7 x ptr] } { [7 x ptr] [ptr null, ptr @_ZTI16llama_data_write, ptr @__cxa_pure_virtual, ptr @__cxa_pure_virtual, ptr @__cxa_pure_virtual, ptr @_ZN16llama_data_writeD2Ev, ptr @_ZN16llama_data_writeD0Ev] }, comdat, align 8

; Function Attrs: inlinehint mustprogress nounwind uwtable
define linkonce_odr void @_ZN16llama_data_writeC2Ev(ptr noundef nonnull align 8 dereferenceable(8) %0) unnamed_addr #7 comdat align 2 {
  %2 = alloca ptr, align 8
  store ptr %0, ptr %2, align 8, !tbaa !393
  %3 = load ptr, ptr %2, align 8
  store ptr getelementptr inbounds inrange(-16, 40) ({ [7 x ptr] }, ptr @_ZTV16llama_data_write, i32 0, i32 0, i32 2), ptr %3, align 8, !tbaa !375
  ret void
}

; Function Attrs: mustprogress nounwind uwtable
define linkonce_odr void @_ZN16llama_data_writeD2Ev(ptr noundef nonnull align 8 dereferenceable(8) %0) unnamed_addr #0 comdat align 2 {
  %2 = alloca ptr, align 8
  store ptr %0, ptr %2, align 8, !tbaa !393
  ret void
}

; Function Attrs: mustprogress nounwind uwtable
define linkonce_odr void @_ZN22llama_data_write_dummyC2Ev(ptr noundef nonnull align 8 dereferenceable(16) %0) unnamed_addr #0 comdat align 2 {
  %2 = alloca ptr, align 8
  store ptr %0, ptr %2, align 8, !tbaa !395
  %3 = load ptr, ptr %2, align 8
  call void @_ZN16llama_data_writeC2Ev(ptr noundef nonnull align 8 dereferenceable(8) %3) #19
  store ptr getelementptr inbounds inrange(-16, 40) ({ [7 x ptr] }, ptr @_ZTV22llama_data_write_dummy, i32 0, i32 0, i32 2), ptr %3, align 8, !tbaa !375
  %4 = getelementptr inbounds nuw %struct.llama_data_write_dummy, ptr %3, i32 0, i32 1
  store i64 0, ptr %4, align 8, !tbaa !397
  ret void
}

; Function Attrs: mustprogress uwtable
define i64 @llama_state_get_size(ptr noundef %0) #2 personality ptr @__gxx_personality_v0 {
  %2 = alloca i64, align 8
  %3 = alloca ptr, align 8
  %4 = alloca %struct.llama_data_write_dummy, align 8
  %5 = alloca ptr, align 8
  %6 = alloca i32, align 4
  %7 = alloca i32, align 4
  %8 = alloca ptr, align 8
  store ptr %0, ptr %3, align 8, !tbaa !3
  call void @llvm.lifetime.start.p0(i64 16, ptr %4) #19
  call void @_ZN22llama_data_write_dummyC2Ev(ptr noundef nonnull align 8 dereferenceable(16) %4)
  %9 = load ptr, ptr %3, align 8, !tbaa !3
  %10 = invoke noundef i64 @_ZL29llama_state_get_data_internalP13llama_contextR16llama_data_write(ptr noundef %9, ptr noundef nonnull align 8 dereferenceable(8) %4)
          to label %11 unwind label %12

11:                                               ; preds = %1
  store i64 %10, ptr %2, align 8
  store i32 1, ptr %7, align 4
  br label %41

12:                                               ; preds = %1
  %13 = landingpad { ptr, i32 }
          cleanup
          catch ptr @_ZTISt9exception
  %14 = extractvalue { ptr, i32 } %13, 0
  store ptr %14, ptr %5, align 8
  %15 = extractvalue { ptr, i32 } %13, 1
  store i32 %15, ptr %6, align 4
  br label %16

16:                                               ; preds = %12
  %17 = load i32, ptr %6, align 4
  %18 = call i32 @llvm.eh.typeid.for.p0(ptr @_ZTISt9exception) #19
  %19 = icmp eq i32 %17, %18
  br i1 %19, label %20, label %43

20:                                               ; preds = %16
  call void @llvm.lifetime.start.p0(i64 8, ptr %8) #19
  %21 = load ptr, ptr %5, align 8
  %22 = call ptr @__cxa_begin_catch(ptr %21) #19
  store ptr %22, ptr %8, align 8
  %23 = load ptr, ptr %8, align 8, !tbaa !373
  %24 = load ptr, ptr %23, align 8, !tbaa !375
  %25 = getelementptr inbounds ptr, ptr %24, i64 2
  %26 = load ptr, ptr %25, align 8
  %27 = call noundef ptr %26(ptr noundef nonnull align 8 dereferenceable(8) %23) #19
  invoke void (i32, ptr, ...) @_Z18llama_log_internal14ggml_log_levelPKcz(i32 noundef 4, ptr noundef @.str.33, ptr noundef @__func__.llama_state_get_size, ptr noundef %27)
          to label %28 unwind label %29

28:                                               ; preds = %20
  store i64 0, ptr %2, align 8
  store i32 1, ptr %7, align 4
  invoke void @__cxa_end_catch()
          to label %33 unwind label %34

29:                                               ; preds = %20
  %30 = landingpad { ptr, i32 }
          cleanup
  %31 = extractvalue { ptr, i32 } %30, 0
  store ptr %31, ptr %5, align 8
  %32 = extractvalue { ptr, i32 } %30, 1
  store i32 %32, ptr %6, align 4
  invoke void @__cxa_end_catch()
          to label %38 unwind label %49

33:                                               ; preds = %28
  call void @llvm.lifetime.end.p0(i64 8, ptr %8) #19
  br label %41

34:                                               ; preds = %28
  %35 = landingpad { ptr, i32 }
          cleanup
  %36 = extractvalue { ptr, i32 } %35, 0
  store ptr %36, ptr %5, align 8
  %37 = extractvalue { ptr, i32 } %35, 1
  store i32 %37, ptr %6, align 4
  br label %39

38:                                               ; preds = %29
  br label %39

39:                                               ; preds = %38, %34
  call void @llvm.lifetime.end.p0(i64 8, ptr %8) #19
  br label %43

40:                                               ; No predecessors!
  unreachable

41:                                               ; preds = %33, %11
  call void @_ZN16llama_data_writeD2Ev(ptr noundef nonnull align 8 dereferenceable(16) %4) #19
  call void @llvm.lifetime.end.p0(i64 16, ptr %4) #19
  %42 = load i64, ptr %2, align 8
  ret i64 %42

43:                                               ; preds = %39, %16
  call void @_ZN16llama_data_writeD2Ev(ptr noundef nonnull align 8 dereferenceable(16) %4) #19
  call void @llvm.lifetime.end.p0(i64 16, ptr %4) #19
  br label %44

44:                                               ; preds = %43
  %45 = load ptr, ptr %5, align 8
  %46 = load i32, ptr %6, align 4
  %47 = insertvalue { ptr, i32 } poison, ptr %45, 0
  %48 = insertvalue { ptr, i32 } %47, i32 %46, 1
  resume { ptr, i32 } %48

49:                                               ; preds = %29
  %50 = landingpad { ptr, i32 }
          catch ptr null
  %51 = extractvalue { ptr, i32 } %50, 0
  call void @__clang_call_terminate(ptr %51) #21
  unreachable
}