; Function Attrs: mustprogress uwtable
define noundef i64 @llama_state_get_size(ptr noundef %0) local_unnamed_addr #2 personality ptr @__gxx_personality_v0 {
  %2 = alloca %struct.llama_data_write_dummy, align 8
  call void @llvm.lifetime.start.p0(i64 16, ptr nonnull %2) #29
  store ptr getelementptr inbounds nuw inrange(-16, 40) (i8, ptr @_ZTV22llama_data_write_dummy, i64 16), ptr %2, align 8, !tbaa !336
  %3 = getelementptr inbounds nuw i8, ptr %2, i64 8
  store i64 0, ptr %3, align 8, !tbaa !339
  %4 = invoke fastcc noundef i64 @_ZL29llama_state_get_data_internalP13llama_contextR16llama_data_write(ptr noundef %0, ptr noundef nonnull align 8 dereferenceable(8) %2)
          to label %20 unwind label %5

5:                                                ; preds = %1
  %6 = landingpad { ptr, i32 }
          cleanup
          catch ptr @_ZTISt9exception
  %7 = extractvalue { ptr, i32 } %6, 1
  %8 = call i32 @llvm.eh.typeid.for.p0(ptr nonnull @_ZTISt9exception) #29
  %9 = icmp eq i32 %7, %8
  br i1 %9, label %10, label %21

10:                                               ; preds = %5
  %11 = extractvalue { ptr, i32 } %6, 0
  %12 = call ptr @__cxa_begin_catch(ptr %11) #29
  %13 = load ptr, ptr %12, align 8, !tbaa !336
  %14 = getelementptr inbounds nuw i8, ptr %13, i64 16
  %15 = load ptr, ptr %14, align 8
  %16 = call noundef ptr %15(ptr noundef nonnull align 8 dereferenceable(8) %12) #29
  invoke void (i32, ptr, ...) @_Z18llama_log_internal14ggml_log_levelPKcz(i32 noundef 4, ptr noundef nonnull @.str.33, ptr noundef nonnull @__func__.llama_state_get_size, ptr noundef %16)
          to label %17 unwind label %18

17:                                               ; preds = %10
  call void @__cxa_end_catch()
  br label %20

18:                                               ; preds = %10
  %19 = landingpad { ptr, i32 }
          cleanup
  invoke void @__cxa_end_catch()
          to label %21 unwind label %22

20:                                               ; preds = %17, %1
  %.0 = phi i64 [ %4, %1 ], [ 0, %17 ]
  call void @llvm.lifetime.end.p0(i64 16, ptr nonnull %2) #29
  ret i64 %.0

21:                                               ; preds = %18, %5
  %.merged = phi { ptr, i32 } [ %6, %5 ], [ %19, %18 ]
  call void @llvm.lifetime.end.p0(i64 16, ptr nonnull %2) #29
  resume { ptr, i32 } %.merged

22:                                               ; preds = %18
  %23 = landingpad { ptr, i32 }
          catch ptr null
  %24 = extractvalue { ptr, i32 } %23, 0
  call void @__clang_call_terminate(ptr %24) #30
  unreachable
}